Archive member included because of file (symbol)

c:/program files (x86)/gnu tools arm embedded/4.8 2014q2/bin/../lib/gcc/arm-none-eabi/4.8.4/armv7e-m/fpu\libgcc.a(_arm_addsubdf3.o)
                              ..\obj\main.o (__aeabi_dadd)
c:/program files (x86)/gnu tools arm embedded/4.8 2014q2/bin/../lib/gcc/arm-none-eabi/4.8.4/armv7e-m/fpu\libgcc.a(_arm_muldivdf3.o)
                              ..\obj\main.o (__aeabi_dmul)
c:/program files (x86)/gnu tools arm embedded/4.8 2014q2/bin/../lib/gcc/arm-none-eabi/4.8.4/armv7e-m/fpu\libgcc.a(_arm_fixdfsi.o)
                              ..\obj\main.o (__aeabi_d2iz)
c:/program files (x86)/gnu tools arm embedded/4.8 2014q2/bin/../lib/gcc/arm-none-eabi/4.8.4/armv7e-m/fpu\libgcc.a(_arm_truncdfsf2.o)
                              ..\obj\main.o (__aeabi_d2f)
c:/program files (x86)/gnu tools arm embedded/4.8 2014q2/bin/../lib/gcc/arm-none-eabi/4.8.4/../../../../arm-none-eabi/lib/armv7e-m/fpu\libc.a(lib_a-malloc.o)
                              ..\obj\llist.o (malloc)
c:/program files (x86)/gnu tools arm embedded/4.8 2014q2/bin/../lib/gcc/arm-none-eabi/4.8.4/../../../../arm-none-eabi/lib/armv7e-m/fpu\libc.a(lib_a-mallocr.o)
                              c:/program files (x86)/gnu tools arm embedded/4.8 2014q2/bin/../lib/gcc/arm-none-eabi/4.8.4/../../../../arm-none-eabi/lib/armv7e-m/fpu\libc.a(lib_a-malloc.o) (_malloc_r)
c:/program files (x86)/gnu tools arm embedded/4.8 2014q2/bin/../lib/gcc/arm-none-eabi/4.8.4/../../../../arm-none-eabi/lib/armv7e-m/fpu\libc.a(lib_a-mlock.o)
                              c:/program files (x86)/gnu tools arm embedded/4.8 2014q2/bin/../lib/gcc/arm-none-eabi/4.8.4/../../../../arm-none-eabi/lib/armv7e-m/fpu\libc.a(lib_a-mallocr.o) (__malloc_lock)
c:/program files (x86)/gnu tools arm embedded/4.8 2014q2/bin/../lib/gcc/arm-none-eabi/4.8.4/../../../../arm-none-eabi/lib/armv7e-m/fpu\libc.a(lib_a-sbrkr.o)
                              c:/program files (x86)/gnu tools arm embedded/4.8 2014q2/bin/../lib/gcc/arm-none-eabi/4.8.4/../../../../arm-none-eabi/lib/armv7e-m/fpu\libc.a(lib_a-mallocr.o) (_sbrk_r)
c:/program files (x86)/gnu tools arm embedded/4.8 2014q2/bin/../lib/gcc/arm-none-eabi/4.8.4/../../../../arm-none-eabi/lib/armv7e-m/fpu\libc.a(lib_a-freer.o)
                              c:/program files (x86)/gnu tools arm embedded/4.8 2014q2/bin/../lib/gcc/arm-none-eabi/4.8.4/../../../../arm-none-eabi/lib/armv7e-m/fpu\libc.a(lib_a-malloc.o) (_free_r)
c:/program files (x86)/gnu tools arm embedded/4.8 2014q2/bin/../lib/gcc/arm-none-eabi/4.8.4/../../../../arm-none-eabi/lib/armv7e-m/fpu\libc.a(lib_a-reent.o)
                              c:/program files (x86)/gnu tools arm embedded/4.8 2014q2/bin/../lib/gcc/arm-none-eabi/4.8.4/../../../../arm-none-eabi/lib/armv7e-m/fpu\libc.a(lib_a-sbrkr.o) (errno)

Allocating common symbols
Common symbol       size              file

params              0x58              ..\obj\main.o
new_note_event      0x1               ..\obj\main.o
errno               0x4               c:/program files (x86)/gnu tools arm embedded/4.8 2014q2/bin/../lib/gcc/arm-none-eabi/4.8.4/../../../../arm-none-eabi/lib/armv7e-m/fpu\libc.a(lib_a-reent.o)
global_pitch        0x4               ..\obj\main.o
trig                0x1               ..\obj\main.o
audiobuff           0x500             ..\obj\main.o
GPIO_InitStructure  0x8               ..\obj\main.o
global_fc           0x4               ..\obj\main.o

Discarded input sections

 .text          0x00000000        0x0 ..\obj\semihosting.o
 .data          0x00000000        0x0 ..\obj\semihosting.o
 .bss           0x00000000       0x14 ..\obj\semihosting.o
 .text.SH_SendChar
                0x00000000       0x64 ..\obj\semihosting.o
 .text.SH_SendString
                0x00000000       0x24 ..\obj\semihosting.o
 .text.SH_GetChar
                0x00000000       0x40 ..\obj\semihosting.o
 .debug_info    0x00000000      0x12b ..\obj\semihosting.o
 .debug_abbrev  0x00000000       0xab ..\obj\semihosting.o
 .debug_aranges
                0x00000000       0x30 ..\obj\semihosting.o
 .debug_ranges  0x00000000       0x20 ..\obj\semihosting.o
 .debug_line    0x00000000       0xa9 ..\obj\semihosting.o
 .debug_str     0x00000000      0x1ab ..\obj\semihosting.o
 .comment       0x00000000       0x71 ..\obj\semihosting.o
 .ARM.attributes
                0x00000000       0x39 ..\obj\semihosting.o
 .debug_frame   0x00000000       0x70 ..\obj\semihosting.o
 .text          0x00000000        0x0 ..\obj\stm32f4xx_syscfg.o
 .data          0x00000000        0x0 ..\obj\stm32f4xx_syscfg.o
 .bss           0x00000000        0x0 ..\obj\stm32f4xx_syscfg.o
 .text.SYSCFG_DeInit
                0x00000000       0x1c ..\obj\stm32f4xx_syscfg.o
 .text.SYSCFG_MemoryRemapConfig
                0x00000000       0x20 ..\obj\stm32f4xx_syscfg.o
 .text.SYSCFG_EXTILineConfig
                0x00000000       0x7c ..\obj\stm32f4xx_syscfg.o
 .text.SYSCFG_ETH_MediaInterfaceConfig
                0x00000000       0x1c ..\obj\stm32f4xx_syscfg.o
 .text.SYSCFG_CompensationCellCmd
                0x00000000       0x20 ..\obj\stm32f4xx_syscfg.o
 .text.SYSCFG_GetCompensationCellStatus
                0x00000000       0x34 ..\obj\stm32f4xx_syscfg.o
 .debug_info    0x00000000      0x26c ..\obj\stm32f4xx_syscfg.o
 .debug_abbrev  0x00000000      0x131 ..\obj\stm32f4xx_syscfg.o
 .debug_aranges
                0x00000000       0x48 ..\obj\stm32f4xx_syscfg.o
 .debug_ranges  0x00000000       0x38 ..\obj\stm32f4xx_syscfg.o
 .debug_line    0x00000000      0x220 ..\obj\stm32f4xx_syscfg.o
 .debug_str     0x00000000      0x315 ..\obj\stm32f4xx_syscfg.o
 .comment       0x00000000       0x71 ..\obj\stm32f4xx_syscfg.o
 .ARM.attributes
                0x00000000       0x39 ..\obj\stm32f4xx_syscfg.o
 .debug_frame   0x00000000       0xbc ..\obj\stm32f4xx_syscfg.o
 .text          0x00000000        0x0 ..\obj\stm32f4_discovery_audio_codec.o
 .data          0x00000000        0x0 ..\obj\stm32f4_discovery_audio_codec.o
 .bss           0x00000000        0x0 ..\obj\stm32f4_discovery_audio_codec.o
 .text          0x00000000        0x0 ..\obj\stm32f4xx_usart.o
 .data          0x00000000        0x0 ..\obj\stm32f4xx_usart.o
 .bss           0x00000000        0x0 ..\obj\stm32f4xx_usart.o
 .text.USART_DeInit
                0x00000000       0xd0 ..\obj\stm32f4xx_usart.o
 .text.USART_StructInit
                0x00000000       0x38 ..\obj\stm32f4xx_usart.o
 .text.USART_ClockInit
                0x00000000       0x54 ..\obj\stm32f4xx_usart.o
 .text.USART_ClockStructInit
                0x00000000       0x2c ..\obj\stm32f4xx_usart.o
 .text.USART_SetPrescaler
                0x00000000       0x38 ..\obj\stm32f4xx_usart.o
 .text.USART_OverSampling8Cmd
                0x00000000       0x44 ..\obj\stm32f4xx_usart.o
 .text.USART_OneBitMethodCmd
                0x00000000       0x40 ..\obj\stm32f4xx_usart.o
 .text.USART_ReceiveData
                0x00000000       0x20 ..\obj\stm32f4xx_usart.o
 .text.USART_SetAddress
                0x00000000       0x38 ..\obj\stm32f4xx_usart.o
 .text.USART_ReceiverWakeUpCmd
                0x00000000       0x40 ..\obj\stm32f4xx_usart.o
 .text.USART_WakeUpConfig
                0x00000000       0x38 ..\obj\stm32f4xx_usart.o
 .text.USART_LINBreakDetectLengthConfig
                0x00000000       0x38 ..\obj\stm32f4xx_usart.o
 .text.USART_LINCmd
                0x00000000       0x40 ..\obj\stm32f4xx_usart.o
 .text.USART_SendBreak
                0x00000000       0x24 ..\obj\stm32f4xx_usart.o
 .text.USART_HalfDuplexCmd
                0x00000000       0x40 ..\obj\stm32f4xx_usart.o
 .text.USART_SetGuardTime
                0x00000000       0x3c ..\obj\stm32f4xx_usart.o
 .text.USART_SmartCardCmd
                0x00000000       0x40 ..\obj\stm32f4xx_usart.o
 .text.USART_SmartCardNACKCmd
                0x00000000       0x40 ..\obj\stm32f4xx_usart.o
 .text.USART_IrDAConfig
                0x00000000       0x38 ..\obj\stm32f4xx_usart.o
 .text.USART_IrDACmd
                0x00000000       0x40 ..\obj\stm32f4xx_usart.o
 .text.USART_ITConfig
                0x00000000       0x90 ..\obj\stm32f4xx_usart.o
 .text.USART_ClearFlag
                0x00000000       0x20 ..\obj\stm32f4xx_usart.o
 .text.USART_GetITStatus
                0x00000000       0xb0 ..\obj\stm32f4xx_usart.o
 .text.USART_ClearITPendingBit
                0x00000000       0x38 ..\obj\stm32f4xx_usart.o
 .text          0x00000000        0x0 ..\obj\stm32f4xx_dac.o
 .data          0x00000000        0x0 ..\obj\stm32f4xx_dac.o
 .bss           0x00000000        0x0 ..\obj\stm32f4xx_dac.o
 .text.DAC_DeInit
                0x00000000       0x1c ..\obj\stm32f4xx_dac.o
 .text.DAC_Init
                0x00000000       0x64 ..\obj\stm32f4xx_dac.o
 .text.DAC_StructInit
                0x00000000       0x2c ..\obj\stm32f4xx_dac.o
 .text.DAC_Cmd  0x00000000       0x48 ..\obj\stm32f4xx_dac.o
 .text.DAC_SoftwareTriggerCmd
                0x00000000       0x4c ..\obj\stm32f4xx_dac.o
 .text.DAC_DualSoftwareTriggerCmd
                0x00000000       0x38 ..\obj\stm32f4xx_dac.o
 .text.DAC_WaveGenerationCmd
                0x00000000       0x4c ..\obj\stm32f4xx_dac.o
 .text.DAC_SetChannel1Data
                0x00000000       0x34 ..\obj\stm32f4xx_dac.o
 .text.DAC_SetChannel2Data
                0x00000000       0x34 ..\obj\stm32f4xx_dac.o
 .text.DAC_SetDualChannelData
                0x00000000       0x58 ..\obj\stm32f4xx_dac.o
 .text.DAC_GetDataOutputValue
                0x00000000       0x34 ..\obj\stm32f4xx_dac.o
 .text.DAC_DMACmd
                0x00000000       0x4c ..\obj\stm32f4xx_dac.o
 .text.DAC_ITConfig
                0x00000000       0x4c ..\obj\stm32f4xx_dac.o
 .text.DAC_GetFlagStatus
                0x00000000       0x3c ..\obj\stm32f4xx_dac.o
 .text.DAC_ClearFlag
                0x00000000       0x24 ..\obj\stm32f4xx_dac.o
 .text.DAC_GetITStatus
                0x00000000       0x58 ..\obj\stm32f4xx_dac.o
 .text.DAC_ClearITPendingBit
                0x00000000       0x24 ..\obj\stm32f4xx_dac.o
 .debug_info    0x00000000      0x63a ..\obj\stm32f4xx_dac.o
 .debug_abbrev  0x00000000      0x17c ..\obj\stm32f4xx_dac.o
 .debug_aranges
                0x00000000       0xa0 ..\obj\stm32f4xx_dac.o
 .debug_ranges  0x00000000       0x90 ..\obj\stm32f4xx_dac.o
 .debug_line    0x00000000      0x35f ..\obj\stm32f4xx_dac.o
 .debug_str     0x00000000      0x474 ..\obj\stm32f4xx_dac.o
 .comment       0x00000000       0x71 ..\obj\stm32f4xx_dac.o
 .ARM.attributes
                0x00000000       0x39 ..\obj\stm32f4xx_dac.o
 .debug_frame   0x00000000      0x1ec ..\obj\stm32f4xx_dac.o
 .text          0x00000000        0x0 ..\obj\llist.o
 .data          0x00000000        0x0 ..\obj\llist.o
 .bss           0x00000000        0x0 ..\obj\llist.o
 .text.add_note_first
                0x00000000       0x38 ..\obj\llist.o
 .rodata        0x00000000       0x1c ..\obj\llist.o
 .text.print_all_note
                0x00000000       0x3c ..\obj\llist.o
 .text          0x00000000        0x0 ..\obj\startup_stm32f4xx.o
 .data          0x00000000        0x0 ..\obj\startup_stm32f4xx.o
 .bss           0x00000000        0x0 ..\obj\startup_stm32f4xx.o
 .text          0x00000000        0x0 ..\obj\main.o
 .data          0x00000000        0x0 ..\obj\main.o
 .text          0x00000000        0x0 ..\obj\stm32f4xx_rcc.o
 .bss           0x00000000        0x0 ..\obj\stm32f4xx_rcc.o
 .text.RCC_DeInit
                0x00000000       0x50 ..\obj\stm32f4xx_rcc.o
 .text.RCC_HSEConfig
                0x00000000       0x24 ..\obj\stm32f4xx_rcc.o
 .text.RCC_WaitForHSEStartUp
                0x00000000       0x50 ..\obj\stm32f4xx_rcc.o
 .text.RCC_AdjustHSICalibrationValue
                0x00000000       0x3c ..\obj\stm32f4xx_rcc.o
 .text.RCC_HSICmd
                0x00000000       0x20 ..\obj\stm32f4xx_rcc.o
 .text.RCC_LSEConfig
                0x00000000       0x40 ..\obj\stm32f4xx_rcc.o
 .text.RCC_LSICmd
                0x00000000       0x20 ..\obj\stm32f4xx_rcc.o
 .text.RCC_PLLConfig
                0x00000000       0x3c ..\obj\stm32f4xx_rcc.o
 .text.RCC_PLLCmd
                0x00000000       0x20 ..\obj\stm32f4xx_rcc.o
 .text.RCC_PLLI2SConfig
                0x00000000       0x28 ..\obj\stm32f4xx_rcc.o
 .text.RCC_ClockSecuritySystemCmd
                0x00000000       0x20 ..\obj\stm32f4xx_rcc.o
 .text.RCC_MCO1Config
                0x00000000       0x3c ..\obj\stm32f4xx_rcc.o
 .text.RCC_MCO2Config
                0x00000000       0x3c ..\obj\stm32f4xx_rcc.o
 .text.RCC_SYSCLKConfig
                0x00000000       0x38 ..\obj\stm32f4xx_rcc.o
 .text.RCC_GetSYSCLKSource
                0x00000000       0x20 ..\obj\stm32f4xx_rcc.o
 .text.RCC_HCLKConfig
                0x00000000       0x38 ..\obj\stm32f4xx_rcc.o
 .text.RCC_PCLK1Config
                0x00000000       0x38 ..\obj\stm32f4xx_rcc.o
 .text.RCC_PCLK2Config
                0x00000000       0x38 ..\obj\stm32f4xx_rcc.o
 .text.RCC_RTCCLKConfig
                0x00000000       0x5c ..\obj\stm32f4xx_rcc.o
 .text.RCC_RTCCLKCmd
                0x00000000       0x20 ..\obj\stm32f4xx_rcc.o
 .text.RCC_BackupResetCmd
                0x00000000       0x20 ..\obj\stm32f4xx_rcc.o
 .text.RCC_AHB2PeriphClockCmd
                0x00000000       0x3c ..\obj\stm32f4xx_rcc.o
 .text.RCC_AHB3PeriphClockCmd
                0x00000000       0x3c ..\obj\stm32f4xx_rcc.o
 .text.RCC_APB2PeriphClockCmd
                0x00000000       0x3c ..\obj\stm32f4xx_rcc.o
 .text.RCC_AHB1PeriphResetCmd
                0x00000000       0x3c ..\obj\stm32f4xx_rcc.o
 .text.RCC_AHB2PeriphResetCmd
                0x00000000       0x3c ..\obj\stm32f4xx_rcc.o
 .text.RCC_AHB3PeriphResetCmd
                0x00000000       0x3c ..\obj\stm32f4xx_rcc.o
 .text.RCC_AHB1PeriphClockLPModeCmd
                0x00000000       0x3c ..\obj\stm32f4xx_rcc.o
 .text.RCC_AHB2PeriphClockLPModeCmd
                0x00000000       0x3c ..\obj\stm32f4xx_rcc.o
 .text.RCC_AHB3PeriphClockLPModeCmd
                0x00000000       0x3c ..\obj\stm32f4xx_rcc.o
 .text.RCC_APB1PeriphClockLPModeCmd
                0x00000000       0x3c ..\obj\stm32f4xx_rcc.o
 .text.RCC_APB2PeriphClockLPModeCmd
                0x00000000       0x3c ..\obj\stm32f4xx_rcc.o
 .text.RCC_ITConfig
                0x00000000       0x48 ..\obj\stm32f4xx_rcc.o
 .text.RCC_GetFlagStatus
                0x00000000       0x74 ..\obj\stm32f4xx_rcc.o
 .text.RCC_ClearFlag
                0x00000000       0x1c ..\obj\stm32f4xx_rcc.o
 .text.RCC_GetITStatus
                0x00000000       0x38 ..\obj\stm32f4xx_rcc.o
 .text.RCC_ClearITPendingBit
                0x00000000       0x20 ..\obj\stm32f4xx_rcc.o
 .text          0x00000000        0x0 ..\obj\printf.o
 .bss           0x00000000        0x0 ..\obj\printf.o
 .text.snprintf
                0x00000000       0x30 ..\obj\printf.o
 .text.fprintf  0x00000000       0x2c ..\obj\printf.o
 .text.sprintf  0x00000000       0x2c ..\obj\printf.o
 .text          0x00000000        0x0 ..\obj\synth.o
 .data          0x00000000        0x0 ..\obj\synth.o
 .bss           0x00000000       0x6c ..\obj\synth.o
 .rodata        0x00000000     0x6000 ..\obj\synth.o
 .text.Make_Sound
                0x00000000      0xc50 ..\obj\synth.o
 .debug_info    0x00000000      0x676 ..\obj\synth.o
 .debug_abbrev  0x00000000      0x141 ..\obj\synth.o
 .debug_aranges
                0x00000000       0x20 ..\obj\synth.o
 .debug_ranges  0x00000000       0x10 ..\obj\synth.o
 .debug_line    0x00000000      0x2ba ..\obj\synth.o
 .debug_str     0x00000000      0x531 ..\obj\synth.o
 .comment       0x00000000       0x71 ..\obj\synth.o
 .ARM.attributes
                0x00000000       0x39 ..\obj\synth.o
 .debug_frame   0x00000000       0x30 ..\obj\synth.o
 .text          0x00000000        0x0 ..\obj\stm32f4xx_gpio.o
 .data          0x00000000        0x0 ..\obj\stm32f4xx_gpio.o
 .bss           0x00000000        0x0 ..\obj\stm32f4xx_gpio.o
 .text.GPIO_DeInit
                0x00000000      0x120 ..\obj\stm32f4xx_gpio.o
 .text.GPIO_PinLockConfig
                0x00000000       0x44 ..\obj\stm32f4xx_gpio.o
 .text.GPIO_ReadInputDataBit
                0x00000000       0x34 ..\obj\stm32f4xx_gpio.o
 .text.GPIO_ReadInputData
                0x00000000       0x1c ..\obj\stm32f4xx_gpio.o
 .text.GPIO_ReadOutputDataBit
                0x00000000       0x34 ..\obj\stm32f4xx_gpio.o
 .text.GPIO_ReadOutputData
                0x00000000       0x1c ..\obj\stm32f4xx_gpio.o
 .text.GPIO_WriteBit
                0x00000000       0x30 ..\obj\stm32f4xx_gpio.o
 .text.GPIO_Write
                0x00000000       0x1c ..\obj\stm32f4xx_gpio.o
 .text.GPIO_ToggleBits
                0x00000000       0x24 ..\obj\stm32f4xx_gpio.o
 .data          0x00000000        0x0 ..\obj\sh_cmd.o
 .bss           0x00000000        0x0 ..\obj\sh_cmd.o
 .text          0x00000000        0x0 ..\obj\system_stm32f4xx.o
 .data          0x00000000       0x14 ..\obj\system_stm32f4xx.o
 .bss           0x00000000        0x0 ..\obj\system_stm32f4xx.o
 .text.SystemInit
                0x00000000       0x68 ..\obj\system_stm32f4xx.o
 .text.SystemCoreClockUpdate
                0x00000000       0xf8 ..\obj\system_stm32f4xx.o
 .text.SetSysClock
                0x00000000      0x128 ..\obj\system_stm32f4xx.o
 .debug_info    0x00000000      0x592 ..\obj\system_stm32f4xx.o
 .debug_abbrev  0x00000000      0x136 ..\obj\system_stm32f4xx.o
 .debug_aranges
                0x00000000       0x30 ..\obj\system_stm32f4xx.o
 .debug_ranges  0x00000000       0x20 ..\obj\system_stm32f4xx.o
 .debug_line    0x00000000      0x1fe ..\obj\system_stm32f4xx.o
 .debug_str     0x00000000      0x3cb ..\obj\system_stm32f4xx.o
 .comment       0x00000000       0x71 ..\obj\system_stm32f4xx.o
 .ARM.attributes
                0x00000000       0x39 ..\obj\system_stm32f4xx.o
 .debug_frame   0x00000000       0x64 ..\obj\system_stm32f4xx.o
 .text          0x00000000        0x0 ..\obj\syscalls.o
 .data          0x00000000        0x0 ..\obj\syscalls.o
 .text.link     0x00000000       0x1c ..\obj\syscalls.o
 .text._close   0x00000000       0x18 ..\obj\syscalls.o
 .text._fstat   0x00000000       0x20 ..\obj\syscalls.o
 .text._isatty  0x00000000       0x18 ..\obj\syscalls.o
 .text._lseek   0x00000000       0x1c ..\obj\syscalls.o
 .text._read    0x00000000       0x1c ..\obj\syscalls.o
 .text._write   0x00000000       0x1c ..\obj\syscalls.o
 .text.abort    0x00000000        0x8 ..\obj\syscalls.o
 .text          0x00000000        0x0 ..\obj\stm32f4xx_dma.o
 .data          0x00000000        0x0 ..\obj\stm32f4xx_dma.o
 .bss           0x00000000        0x0 ..\obj\stm32f4xx_dma.o
 .text.DMA_StructInit
                0x00000000       0x6c ..\obj\stm32f4xx_dma.o
 .text.DMA_PeriphIncOffsetSizeConfig
                0x00000000       0x34 ..\obj\stm32f4xx_dma.o
 .text.DMA_FlowControllerConfig
                0x00000000       0x34 ..\obj\stm32f4xx_dma.o
 .text.DMA_SetCurrDataCounter
                0x00000000       0x1c ..\obj\stm32f4xx_dma.o
 .text.DMA_DoubleBufferModeConfig
                0x00000000       0x3c ..\obj\stm32f4xx_dma.o
 .text.DMA_DoubleBufferModeCmd
                0x00000000       0x38 ..\obj\stm32f4xx_dma.o
 .text.DMA_MemoryTargetConfig
                0x00000000       0x2c ..\obj\stm32f4xx_dma.o
 .text.DMA_GetCurrentMemoryTarget
                0x00000000       0x30 ..\obj\stm32f4xx_dma.o
 .text.DMA_GetCmdStatus
                0x00000000       0x30 ..\obj\stm32f4xx_dma.o
 .text.DMA_GetFIFOStatus
                0x00000000       0x24 ..\obj\stm32f4xx_dma.o
 .text.DMA_GetFlagStatus
                0x00000000       0x78 ..\obj\stm32f4xx_dma.o
 .text.DMA_ClearFlag
                0x00000000       0x5c ..\obj\stm32f4xx_dma.o
 .text.DMA_ITConfig
                0x00000000       0x74 ..\obj\stm32f4xx_dma.o
 .text          0x00000000        0x0 ..\obj\stm32f4xx_spi.o
 .data          0x00000000        0x0 ..\obj\stm32f4xx_spi.o
 .bss           0x00000000        0x0 ..\obj\stm32f4xx_spi.o
 .text.SPI_Init
                0x00000000       0x88 ..\obj\stm32f4xx_spi.o
 .text.SPI_StructInit
                0x00000000       0x48 ..\obj\stm32f4xx_spi.o
 .text.I2S_StructInit
                0x00000000       0x38 ..\obj\stm32f4xx_spi.o
 .text.SPI_Cmd  0x00000000       0x40 ..\obj\stm32f4xx_spi.o
 .text.SPI_DataSizeConfig
                0x00000000       0x38 ..\obj\stm32f4xx_spi.o
 .text.SPI_BiDirectionalLineConfig
                0x00000000       0x40 ..\obj\stm32f4xx_spi.o
 .text.SPI_NSSInternalSoftwareConfig
                0x00000000       0x44 ..\obj\stm32f4xx_spi.o
 .text.SPI_SSOutputCmd
                0x00000000       0x40 ..\obj\stm32f4xx_spi.o
 .text.SPI_TIModeCmd
                0x00000000       0x40 ..\obj\stm32f4xx_spi.o
 .text.I2S_FullDuplexConfig
                0x00000000       0x9c ..\obj\stm32f4xx_spi.o
 .text.SPI_I2S_ReceiveData
                0x00000000       0x1c ..\obj\stm32f4xx_spi.o
 .text.SPI_CalculateCRC
                0x00000000       0x40 ..\obj\stm32f4xx_spi.o
 .text.SPI_TransmitCRC
                0x00000000       0x24 ..\obj\stm32f4xx_spi.o
 .text.SPI_GetCRC
                0x00000000       0x34 ..\obj\stm32f4xx_spi.o
 .text.SPI_GetCRCPolynomial
                0x00000000       0x1c ..\obj\stm32f4xx_spi.o
 .text.SPI_I2S_DMACmd
                0x00000000       0x48 ..\obj\stm32f4xx_spi.o
 .text.SPI_I2S_ITConfig
                0x00000000       0x60 ..\obj\stm32f4xx_spi.o
 .text.SPI_I2S_ClearFlag
                0x00000000       0x20 ..\obj\stm32f4xx_spi.o
 .text.SPI_I2S_GetITStatus
                0x00000000       0x78 ..\obj\stm32f4xx_spi.o
 .text.SPI_I2S_ClearITPendingBit
                0x00000000       0x34 ..\obj\stm32f4xx_spi.o
 .text          0x00000000        0x0 ..\obj\stm32f4xx_i2c.o
 .data          0x00000000        0x0 ..\obj\stm32f4xx_i2c.o
 .bss           0x00000000        0x0 ..\obj\stm32f4xx_i2c.o
 .text.I2C_StructInit
                0x00000000       0x3c ..\obj\stm32f4xx_i2c.o
 .text.I2C_OwnAddress2Config
                0x00000000       0x40 ..\obj\stm32f4xx_i2c.o
 .text.I2C_DualAddressCmd
                0x00000000       0x40 ..\obj\stm32f4xx_i2c.o
 .text.I2C_GeneralCallCmd
                0x00000000       0x40 ..\obj\stm32f4xx_i2c.o
 .text.I2C_SoftwareResetCmd
                0x00000000       0x44 ..\obj\stm32f4xx_i2c.o
 .text.I2C_StretchClockCmd
                0x00000000       0x40 ..\obj\stm32f4xx_i2c.o
 .text.I2C_FastModeDutyCycleConfig
                0x00000000       0x40 ..\obj\stm32f4xx_i2c.o
 .text.I2C_NACKPositionConfig
                0x00000000       0x40 ..\obj\stm32f4xx_i2c.o
 .text.I2C_SMBusAlertConfig
                0x00000000       0x40 ..\obj\stm32f4xx_i2c.o
 .text.I2C_ARPCmd
                0x00000000       0x40 ..\obj\stm32f4xx_i2c.o
 .text.I2C_TransmitPEC
                0x00000000       0x40 ..\obj\stm32f4xx_i2c.o
 .text.I2C_PECPositionConfig
                0x00000000       0x40 ..\obj\stm32f4xx_i2c.o
 .text.I2C_CalculatePEC
                0x00000000       0x40 ..\obj\stm32f4xx_i2c.o
 .text.I2C_GetPEC
                0x00000000       0x20 ..\obj\stm32f4xx_i2c.o
 .text.I2C_DMACmd
                0x00000000       0x40 ..\obj\stm32f4xx_i2c.o
 .text.I2C_DMALastTransferCmd
                0x00000000       0x40 ..\obj\stm32f4xx_i2c.o
 .text.I2C_ReadRegister
                0x00000000       0x30 ..\obj\stm32f4xx_i2c.o
 .text.I2C_ITConfig
                0x00000000       0x48 ..\obj\stm32f4xx_i2c.o
 .text.I2C_GetLastEvent
                0x00000000       0x44 ..\obj\stm32f4xx_i2c.o
 .text.I2C_ClearFlag
                0x00000000       0x2c ..\obj\stm32f4xx_i2c.o
 .text.I2C_GetITStatus
                0x00000000       0x5c ..\obj\stm32f4xx_i2c.o
 .text.I2C_ClearITPendingBit
                0x00000000       0x2c ..\obj\stm32f4xx_i2c.o
 .text          0x00000000        0x0 ..\obj\misc.o
 .data          0x00000000        0x0 ..\obj\misc.o
 .bss           0x00000000        0x0 ..\obj\misc.o
 .text.NVIC_SetVectorTable
                0x00000000       0x2c ..\obj\misc.o
 .text.NVIC_SystemLPConfig
                0x00000000       0x40 ..\obj\misc.o
 .text.SysTick_CLKSourceConfig
                0x00000000       0x38 ..\obj\misc.o
 .text          0x00000000        0x0 ..\obj\wavetable.o
 .data          0x00000000        0x0 ..\obj\wavetable.o
 .bss           0x00000000        0x0 ..\obj\wavetable.o
 .debug_info    0x00000000       0xae ..\obj\wavetable.o
 .debug_abbrev  0x00000000       0x4b ..\obj\wavetable.o
 .debug_aranges
                0x00000000       0x18 ..\obj\wavetable.o
 .debug_line    0x00000000      0x11d ..\obj\wavetable.o
 .debug_str     0x00000000      0x1d7 ..\obj\wavetable.o
 .comment       0x00000000       0x71 ..\obj\wavetable.o
 .ARM.attributes
                0x00000000       0x39 ..\obj\wavetable.o
 .text          0x00000000        0x0 ..\obj\midi.o
 .data          0x00000000        0x0 c:/program files (x86)/gnu tools arm embedded/4.8 2014q2/bin/../lib/gcc/arm-none-eabi/4.8.4/armv7e-m/fpu\libgcc.a(_arm_addsubdf3.o)
 .bss           0x00000000        0x0 c:/program files (x86)/gnu tools arm embedded/4.8 2014q2/bin/../lib/gcc/arm-none-eabi/4.8.4/armv7e-m/fpu\libgcc.a(_arm_addsubdf3.o)
 .data          0x00000000        0x0 c:/program files (x86)/gnu tools arm embedded/4.8 2014q2/bin/../lib/gcc/arm-none-eabi/4.8.4/armv7e-m/fpu\libgcc.a(_arm_muldivdf3.o)
 .bss           0x00000000        0x0 c:/program files (x86)/gnu tools arm embedded/4.8 2014q2/bin/../lib/gcc/arm-none-eabi/4.8.4/armv7e-m/fpu\libgcc.a(_arm_muldivdf3.o)
 .data          0x00000000        0x0 c:/program files (x86)/gnu tools arm embedded/4.8 2014q2/bin/../lib/gcc/arm-none-eabi/4.8.4/armv7e-m/fpu\libgcc.a(_arm_fixdfsi.o)
 .bss           0x00000000        0x0 c:/program files (x86)/gnu tools arm embedded/4.8 2014q2/bin/../lib/gcc/arm-none-eabi/4.8.4/armv7e-m/fpu\libgcc.a(_arm_fixdfsi.o)
 .data          0x00000000        0x0 c:/program files (x86)/gnu tools arm embedded/4.8 2014q2/bin/../lib/gcc/arm-none-eabi/4.8.4/armv7e-m/fpu\libgcc.a(_arm_truncdfsf2.o)
 .bss           0x00000000        0x0 c:/program files (x86)/gnu tools arm embedded/4.8 2014q2/bin/../lib/gcc/arm-none-eabi/4.8.4/armv7e-m/fpu\libgcc.a(_arm_truncdfsf2.o)
 .text          0x00000000        0x0 c:/program files (x86)/gnu tools arm embedded/4.8 2014q2/bin/../lib/gcc/arm-none-eabi/4.8.4/../../../../arm-none-eabi/lib/armv7e-m/fpu\libc.a(lib_a-malloc.o)
 .data          0x00000000        0x0 c:/program files (x86)/gnu tools arm embedded/4.8 2014q2/bin/../lib/gcc/arm-none-eabi/4.8.4/../../../../arm-none-eabi/lib/armv7e-m/fpu\libc.a(lib_a-malloc.o)
 .bss           0x00000000        0x0 c:/program files (x86)/gnu tools arm embedded/4.8 2014q2/bin/../lib/gcc/arm-none-eabi/4.8.4/../../../../arm-none-eabi/lib/armv7e-m/fpu\libc.a(lib_a-malloc.o)
 .text          0x00000000        0x0 c:/program files (x86)/gnu tools arm embedded/4.8 2014q2/bin/../lib/gcc/arm-none-eabi/4.8.4/../../../../arm-none-eabi/lib/armv7e-m/fpu\libc.a(lib_a-mallocr.o)
 .data          0x00000000        0x0 c:/program files (x86)/gnu tools arm embedded/4.8 2014q2/bin/../lib/gcc/arm-none-eabi/4.8.4/../../../../arm-none-eabi/lib/armv7e-m/fpu\libc.a(lib_a-mallocr.o)
 .bss           0x00000000        0x0 c:/program files (x86)/gnu tools arm embedded/4.8 2014q2/bin/../lib/gcc/arm-none-eabi/4.8.4/../../../../arm-none-eabi/lib/armv7e-m/fpu\libc.a(lib_a-mallocr.o)
 .text          0x00000000        0x0 c:/program files (x86)/gnu tools arm embedded/4.8 2014q2/bin/../lib/gcc/arm-none-eabi/4.8.4/../../../../arm-none-eabi/lib/armv7e-m/fpu\libc.a(lib_a-mlock.o)
 .data          0x00000000        0x0 c:/program files (x86)/gnu tools arm embedded/4.8 2014q2/bin/../lib/gcc/arm-none-eabi/4.8.4/../../../../arm-none-eabi/lib/armv7e-m/fpu\libc.a(lib_a-mlock.o)
 .bss           0x00000000        0x0 c:/program files (x86)/gnu tools arm embedded/4.8 2014q2/bin/../lib/gcc/arm-none-eabi/4.8.4/../../../../arm-none-eabi/lib/armv7e-m/fpu\libc.a(lib_a-mlock.o)
 .text          0x00000000        0x0 c:/program files (x86)/gnu tools arm embedded/4.8 2014q2/bin/../lib/gcc/arm-none-eabi/4.8.4/../../../../arm-none-eabi/lib/armv7e-m/fpu\libc.a(lib_a-sbrkr.o)
 .data          0x00000000        0x0 c:/program files (x86)/gnu tools arm embedded/4.8 2014q2/bin/../lib/gcc/arm-none-eabi/4.8.4/../../../../arm-none-eabi/lib/armv7e-m/fpu\libc.a(lib_a-sbrkr.o)
 .bss           0x00000000        0x0 c:/program files (x86)/gnu tools arm embedded/4.8 2014q2/bin/../lib/gcc/arm-none-eabi/4.8.4/../../../../arm-none-eabi/lib/armv7e-m/fpu\libc.a(lib_a-sbrkr.o)
 .text          0x00000000        0x0 c:/program files (x86)/gnu tools arm embedded/4.8 2014q2/bin/../lib/gcc/arm-none-eabi/4.8.4/../../../../arm-none-eabi/lib/armv7e-m/fpu\libc.a(lib_a-freer.o)
 .data          0x00000000        0x0 c:/program files (x86)/gnu tools arm embedded/4.8 2014q2/bin/../lib/gcc/arm-none-eabi/4.8.4/../../../../arm-none-eabi/lib/armv7e-m/fpu\libc.a(lib_a-freer.o)
 .bss           0x00000000        0x0 c:/program files (x86)/gnu tools arm embedded/4.8 2014q2/bin/../lib/gcc/arm-none-eabi/4.8.4/../../../../arm-none-eabi/lib/armv7e-m/fpu\libc.a(lib_a-freer.o)
 .text          0x00000000        0x0 c:/program files (x86)/gnu tools arm embedded/4.8 2014q2/bin/../lib/gcc/arm-none-eabi/4.8.4/../../../../arm-none-eabi/lib/armv7e-m/fpu\libc.a(lib_a-reent.o)
 .data          0x00000000        0x0 c:/program files (x86)/gnu tools arm embedded/4.8 2014q2/bin/../lib/gcc/arm-none-eabi/4.8.4/../../../../arm-none-eabi/lib/armv7e-m/fpu\libc.a(lib_a-reent.o)
 .bss           0x00000000        0x0 c:/program files (x86)/gnu tools arm embedded/4.8 2014q2/bin/../lib/gcc/arm-none-eabi/4.8.4/../../../../arm-none-eabi/lib/armv7e-m/fpu\libc.a(lib_a-reent.o)
 .text.cleanup_glue
                0x00000000       0x1c c:/program files (x86)/gnu tools arm embedded/4.8 2014q2/bin/../lib/gcc/arm-none-eabi/4.8.4/../../../../arm-none-eabi/lib/armv7e-m/fpu\libc.a(lib_a-reent.o)
 .text._reclaim_reent
                0x00000000       0x90 c:/program files (x86)/gnu tools arm embedded/4.8 2014q2/bin/../lib/gcc/arm-none-eabi/4.8.4/../../../../arm-none-eabi/lib/armv7e-m/fpu\libc.a(lib_a-reent.o)

Memory Configuration

Name             Origin             Length             Attributes
rom              0x08000000         0x00100000         xr
ram              0x20000000         0x00020000         xrw
ram1             0x10000000         0x00010000         xrw
*default*        0x00000000         0xffffffff

Linker script and memory map

                0x20020000                _eram = 0x20020000

.text           0x08000000     0x43d8
 *(.isr_vector)
 .isr_vector    0x08000000      0x188 ..\obj\startup_stm32f4xx.o
                0x08000000                g_pfnVectors
 *(.text*)
 .text.codec_init
                0x08000188      0x174 ..\obj\stm32f4_discovery_audio_codec.o
                0x08000188                codec_init
 .text.codec_ctrl_init
                0x080002fc      0x164 ..\obj\stm32f4_discovery_audio_codec.o
                0x080002fc                codec_ctrl_init
 .text.send_codec_ctrl
                0x08000460       0xb8 ..\obj\stm32f4_discovery_audio_codec.o
                0x08000460                send_codec_ctrl
 .text.read_codec_register
                0x08000518      0x104 ..\obj\stm32f4_discovery_audio_codec.o
                0x08000518                read_codec_register
 .text.USART_Init
                0x0800061c      0x174 ..\obj\stm32f4xx_usart.o
                0x0800061c                USART_Init
 .text.USART_Cmd
                0x08000790       0x40 ..\obj\stm32f4xx_usart.o
                0x08000790                USART_Cmd
 .text.USART_SendData
                0x080007d0       0x24 ..\obj\stm32f4xx_usart.o
                0x080007d0                USART_SendData
 .text.USART_DMACmd
                0x080007f4       0x48 ..\obj\stm32f4xx_usart.o
                0x080007f4                USART_DMACmd
 .text.USART_GetFlagStatus
                0x0800083c       0x38 ..\obj\stm32f4xx_usart.o
                0x0800083c                USART_GetFlagStatus
 .text.add_note_last
                0x08000874       0x5c ..\obj\llist.o
                0x08000874                add_note_last
 .text.delete_note
                0x080008d0       0x5c ..\obj\llist.o
                0x080008d0                delete_note
 .text.get_last_note
                0x0800092c       0x34 ..\obj\llist.o
                0x0800092c                get_last_note
 .text.Default_Reset_Handler
                0x08000960       0x6c ..\obj\startup_stm32f4xx.o
                0x08000960                Default_Reset_Handler
                0x08000960                Reset_Handler
 .text.Default_Handler
                0x080009cc        0x8 ..\obj\startup_stm32f4xx.o
                0x080009cc                RTC_Alarm_IRQHandler
                0x080009cc                HASH_RNG_IRQHandler
                0x080009cc                EXTI2_IRQHandler
                0x080009cc                TIM8_CC_IRQHandler
                0x080009cc                DebugMon_Handler
                0x080009cc                TIM1_CC_IRQHandler
                0x080009cc                DMA2_Stream5_IRQHandler
                0x080009cc                DMA1_Stream5_IRQHandler
                0x080009cc                SysTick_Handler
                0x080009cc                PVD_IRQHandler
                0x080009cc                SDIO_IRQHandler
                0x080009cc                TAMP_STAMP_IRQHandler
                0x080009cc                PendSV_Handler
                0x080009cc                NMI_Handler
                0x080009cc                CAN2_RX1_IRQHandler
                0x080009cc                EXTI3_IRQHandler
                0x080009cc                TIM8_TRG_COM_TIM14_IRQHandler
                0x080009cc                TIM1_UP_TIM10_IRQHandler
                0x080009cc                TIM8_UP_TIM13_IRQHandler
                0x080009cc                I2C3_ER_IRQHandler
                0x080009cc                EXTI0_IRQHandler
                0x080009cc                I2C2_EV_IRQHandler
                0x080009cc                DMA1_Stream2_IRQHandler
                0x080009cc                CAN1_RX0_IRQHandler
                0x080009cc                FPU_IRQHandler
                0x080009cc                OTG_HS_WKUP_IRQHandler
                0x080009cc                UsageFault_Handler
                0x080009cc                CAN2_SCE_IRQHandler
                0x080009cc                DMA2_Stream2_IRQHandler
                0x080009cc                SPI1_IRQHandler
                0x080009cc                TIM6_DAC_IRQHandler
                0x080009cc                TIM1_BRK_TIM9_IRQHandler
                0x080009cc                DCMI_IRQHandler
                0x080009cc                CAN2_RX0_IRQHandler
                0x080009cc                DMA2_Stream3_IRQHandler
                0x080009cc                USART6_IRQHandler
                0x080009cc                CRYP_IRQHandler
                0x080009cc                CAN1_RX1_IRQHandler
                0x080009cc                UART5_IRQHandler
                0x080009cc                DMA2_Stream0_IRQHandler
                0x080009cc                TIM4_IRQHandler
                0x080009cc                I2C1_EV_IRQHandler
                0x080009cc                DMA1_Stream6_IRQHandler
                0x080009cc                UART4_IRQHandler
                0x080009cc                TIM3_IRQHandler
                0x080009cc                RCC_IRQHandler
                0x080009cc                TIM8_BRK_TIM12_IRQHandler
                0x080009cc                EXTI15_10_IRQHandler
                0x080009cc                ADC_IRQHandler
                0x080009cc                DMA1_Stream7_IRQHandler
                0x080009cc                TIM7_IRQHandler
                0x080009cc                CAN2_TX_IRQHandler
                0x080009cc                TIM5_IRQHandler
                0x080009cc                DMA2_Stream7_IRQHandler
                0x080009cc                I2C3_EV_IRQHandler
                0x080009cc                EXTI9_5_IRQHandler
                0x080009cc                RTC_WKUP_IRQHandler
                0x080009cc                ETH_WKUP_IRQHandler
                0x080009cc                SPI2_IRQHandler
                0x080009cc                OTG_HS_EP1_IN_IRQHandler
                0x080009cc                MemManage_Handler
                0x080009cc                DMA1_Stream0_IRQHandler
                0x080009cc                CAN1_TX_IRQHandler
                0x080009cc                SVC_Handler
                0x080009cc                EXTI4_IRQHandler
                0x080009cc                FSMC_IRQHandler
                0x080009cc                ETH_IRQHandler
                0x080009cc                OTG_HS_EP1_OUT_IRQHandler
                0x080009cc                WWDG_IRQHandler
                0x080009cc                TIM2_IRQHandler
                0x080009cc                OTG_FS_WKUP_IRQHandler
                0x080009cc                TIM1_TRG_COM_TIM11_IRQHandler
                0x080009cc                OTG_HS_IRQHandler
                0x080009cc                EXTI1_IRQHandler
                0x080009cc                USART2_IRQHandler
                0x080009cc                I2C2_ER_IRQHandler
                0x080009cc                DMA2_Stream1_IRQHandler
                0x080009cc                CAN1_SCE_IRQHandler
                0x080009cc                FLASH_IRQHandler
                0x080009cc                DMA2_Stream4_IRQHandler
                0x080009cc                BusFault_Handler
                0x080009cc                USART1_IRQHandler
                0x080009cc                OTG_FS_IRQHandler
                0x080009cc                SPI3_IRQHandler
                0x080009cc                DMA1_Stream4_IRQHandler
                0x080009cc                I2C1_ER_IRQHandler
                0x080009cc                DMA2_Stream6_IRQHandler
                0x080009cc                DMA1_Stream3_IRQHandler
 *fill*         0x080009d4        0x4 
 .text.main     0x080009d8      0x2d8 ..\obj\main.o
                0x080009d8                main
 .text.LED_PUSH_Start
                0x08000cb0       0x64 ..\obj\main.o
                0x08000cb0                LED_PUSH_Start
 .text.FDTI_Start
                0x08000d14       0x74 ..\obj\main.o
                0x08000d14                FDTI_Start
 .text.USART3_IRQHandler
                0x08000d88        0xc ..\obj\main.o
                0x08000d88                USART3_IRQHandler
 .text.DMA1_Stream1_IRQHandler
                0x08000d94       0x24 ..\obj\main.o
                0x08000d94                DMA1_Stream1_IRQHandler
 .text.RCC_PLLI2SCmd
                0x08000db8       0x20 ..\obj\stm32f4xx_rcc.o
                0x08000db8                RCC_PLLI2SCmd
 .text.RCC_GetClocksFreq
                0x08000dd8      0x154 ..\obj\stm32f4xx_rcc.o
                0x08000dd8                RCC_GetClocksFreq
 .text.RCC_I2SCLKConfig
                0x08000f2c       0x1c ..\obj\stm32f4xx_rcc.o
                0x08000f2c                RCC_I2SCLKConfig
 .text.RCC_AHB1PeriphClockCmd
                0x08000f48       0x3c ..\obj\stm32f4xx_rcc.o
                0x08000f48                RCC_AHB1PeriphClockCmd
 .text.RCC_APB1PeriphClockCmd
                0x08000f84       0x3c ..\obj\stm32f4xx_rcc.o
                0x08000f84                RCC_APB1PeriphClockCmd
 .text.RCC_APB1PeriphResetCmd
                0x08000fc0       0x3c ..\obj\stm32f4xx_rcc.o
                0x08000fc0                RCC_APB1PeriphResetCmd
 .text.RCC_APB2PeriphResetCmd
                0x08000ffc       0x3c ..\obj\stm32f4xx_rcc.o
                0x08000ffc                RCC_APB2PeriphResetCmd
 .text.PrintChar
                0x08001038       0x30 ..\obj\printf.o
                0x08001038                PrintChar
 .text.PutChar  0x08001068       0x20 ..\obj\printf.o
                0x08001068                PutChar
 .text.PutString
                0x08001088       0x3c ..\obj\printf.o
                0x08001088                PutString
 .text.PutUnsignedInt
                0x080010c4       0xa0 ..\obj\printf.o
                0x080010c4                PutUnsignedInt
 .text.PutSignedInt
                0x08001164       0xfc ..\obj\printf.o
                0x08001164                PutSignedInt
 .text.PutHexa  0x08001260       0xd4 ..\obj\printf.o
                0x08001260                PutHexa
 .text.vsnprintf
                0x08001334      0x254 ..\obj\printf.o
                0x08001334                vsnprintf
 .text.vsprintf
                0x08001588       0x24 ..\obj\printf.o
                0x08001588                vsprintf
 .text.vfprintf
                0x080015ac       0x68 ..\obj\printf.o
                0x080015ac                vfprintf
 .text.vprintf  0x08001614       0x28 ..\obj\printf.o
                0x08001614                vprintf
 .text.printf   0x0800163c       0x28 ..\obj\printf.o
                0x0800163c                printf
 .text.puts     0x08001664       0x24 ..\obj\printf.o
                0x08001664                puts
 .text.fputc    0x08001688       0x40 ..\obj\printf.o
                0x08001688                fputc
 .text.fputs    0x080016c8       0x48 ..\obj\printf.o
                0x080016c8                fputs
 .text.GPIO_Init
                0x08001710      0x11c ..\obj\stm32f4xx_gpio.o
                0x08001710                GPIO_Init
 .text.GPIO_StructInit
                0x0800182c       0x34 ..\obj\stm32f4xx_gpio.o
                0x0800182c                GPIO_StructInit
 .text.GPIO_SetBits
                0x08001860       0x1c ..\obj\stm32f4xx_gpio.o
                0x08001860                GPIO_SetBits
 .text.GPIO_ResetBits
                0x0800187c       0x1c ..\obj\stm32f4xx_gpio.o
                0x0800187c                GPIO_ResetBits
 .text.GPIO_PinAFConfig
                0x08001898       0x8c ..\obj\stm32f4xx_gpio.o
                0x08001898                GPIO_PinAFConfig
 .text          0x08001924       0x30 ..\obj\sh_cmd.o
                0x08001924                SH_DoCommand
                0x0800193a                HardFault_Handler
 .text._sbrk    0x08001954       0x40 ..\obj\syscalls.o
                0x08001954                _sbrk
 .text.DMA_DeInit
                0x08001994      0x1a4 ..\obj\stm32f4xx_dma.o
                0x08001994                DMA_DeInit
 .text.DMA_Init
                0x08001b38       0xac ..\obj\stm32f4xx_dma.o
                0x08001b38                DMA_Init
 .text.DMA_Cmd  0x08001be4       0x38 ..\obj\stm32f4xx_dma.o
                0x08001be4                DMA_Cmd
 .text.DMA_GetCurrDataCounter
                0x08001c1c       0x1c ..\obj\stm32f4xx_dma.o
                0x08001c1c                DMA_GetCurrDataCounter
 .text.DMA_GetITStatus
                0x08001c38       0xb0 ..\obj\stm32f4xx_dma.o
                0x08001c38                DMA_GetITStatus
 .text.DMA_ClearITPendingBit
                0x08001ce8       0x5c ..\obj\stm32f4xx_dma.o
                0x08001ce8                DMA_ClearITPendingBit
 .text.SPI_I2S_DeInit
                0x08001d44       0x74 ..\obj\stm32f4xx_spi.o
                0x08001d44                SPI_I2S_DeInit
 .text.I2S_Init
                0x08001db8      0x1b0 ..\obj\stm32f4xx_spi.o
                0x08001db8                I2S_Init
 .text.I2S_Cmd  0x08001f68       0x40 ..\obj\stm32f4xx_spi.o
                0x08001f68                I2S_Cmd
 .text.SPI_I2S_SendData
                0x08001fa8       0x1c ..\obj\stm32f4xx_spi.o
                0x08001fa8                SPI_I2S_SendData
 .text.SPI_I2S_GetFlagStatus
                0x08001fc4       0x38 ..\obj\stm32f4xx_spi.o
                0x08001fc4                SPI_I2S_GetFlagStatus
 .text.I2C_DeInit
                0x08001ffc       0x74 ..\obj\stm32f4xx_i2c.o
                0x08001ffc                I2C_DeInit
 .text.I2C_Init
                0x08002070      0x184 ..\obj\stm32f4xx_i2c.o
                0x08002070                I2C_Init
 .text.I2C_Cmd  0x080021f4       0x40 ..\obj\stm32f4xx_i2c.o
                0x080021f4                I2C_Cmd
 .text.I2C_GenerateSTART
                0x08002234       0x40 ..\obj\stm32f4xx_i2c.o
                0x08002234                I2C_GenerateSTART
 .text.I2C_GenerateSTOP
                0x08002274       0x40 ..\obj\stm32f4xx_i2c.o
                0x08002274                I2C_GenerateSTOP
 .text.I2C_Send7bitAddress
                0x080022b4       0x3c ..\obj\stm32f4xx_i2c.o
                0x080022b4                I2C_Send7bitAddress
 .text.I2C_AcknowledgeConfig
                0x080022f0       0x40 ..\obj\stm32f4xx_i2c.o
                0x080022f0                I2C_AcknowledgeConfig
 .text.I2C_SendData
                0x08002330       0x20 ..\obj\stm32f4xx_i2c.o
                0x08002330                I2C_SendData
 .text.I2C_ReceiveData
                0x08002350       0x1c ..\obj\stm32f4xx_i2c.o
                0x08002350                I2C_ReceiveData
 .text.I2C_CheckEvent
                0x0800236c       0x60 ..\obj\stm32f4xx_i2c.o
                0x0800236c                I2C_CheckEvent
 .text.I2C_GetFlagStatus
                0x080023cc       0x68 ..\obj\stm32f4xx_i2c.o
                0x080023cc                I2C_GetFlagStatus
 .text.NVIC_PriorityGroupConfig
                0x08002434       0x24 ..\obj\misc.o
                0x08002434                NVIC_PriorityGroupConfig
 .text.NVIC_Init
                0x08002458       0xbc ..\obj\misc.o
                0x08002458                NVIC_Init
 .text.MIDI_Start
                0x08002514      0x140 ..\obj\midi.o
                0x08002514                MIDI_Start
 .text.MIDI_GetNbNewBytes
                0x08002654       0x60 ..\obj\midi.o
                0x08002654                MIDI_GetNbNewBytes
 .text.MIDI_parser
                0x080026b4      0x4e4 ..\obj\midi.o
                0x080026b4                MIDI_parser
 .text.ChangeParam
                0x08002b98      0x3ec ..\obj\midi.o
                0x08002b98                ChangeParam
 .text          0x08002f84      0x370 c:/program files (x86)/gnu tools arm embedded/4.8 2014q2/bin/../lib/gcc/arm-none-eabi/4.8.4/armv7e-m/fpu\libgcc.a(_arm_addsubdf3.o)
                0x08002f84                __aeabi_drsub
                0x08002f8c                __aeabi_dsub
                0x08002f8c                __subdf3
                0x08002f90                __aeabi_dadd
                0x08002f90                __adddf3
                0x08003208                __floatunsidf
                0x08003208                __aeabi_ui2d
                0x08003228                __floatsidf
                0x08003228                __aeabi_i2d
                0x0800324c                __aeabi_f2d
                0x0800324c                __extendsfdf2
                0x08003288                __floatundidf
                0x08003288                __aeabi_ul2d
                0x08003298                __floatdidf
                0x08003298                __aeabi_l2d
 .text          0x080032f4      0x424 c:/program files (x86)/gnu tools arm embedded/4.8 2014q2/bin/../lib/gcc/arm-none-eabi/4.8.4/armv7e-m/fpu\libgcc.a(_arm_muldivdf3.o)
                0x080032f4                __aeabi_dmul
                0x080032f4                __muldf3
                0x08003548                __divdf3
                0x08003548                __aeabi_ddiv
 .text          0x08003718       0x50 c:/program files (x86)/gnu tools arm embedded/4.8 2014q2/bin/../lib/gcc/arm-none-eabi/4.8.4/armv7e-m/fpu\libgcc.a(_arm_fixdfsi.o)
                0x08003718                __aeabi_d2iz
                0x08003718                __fixdfsi
 .text          0x08003768       0xa0 c:/program files (x86)/gnu tools arm embedded/4.8 2014q2/bin/../lib/gcc/arm-none-eabi/4.8.4/armv7e-m/fpu\libgcc.a(_arm_truncdfsf2.o)
                0x08003768                __truncdfsf2
                0x08003768                __aeabi_d2f
 .text.malloc   0x08003808       0x10 c:/program files (x86)/gnu tools arm embedded/4.8 2014q2/bin/../lib/gcc/arm-none-eabi/4.8.4/../../../../arm-none-eabi/lib/armv7e-m/fpu\libc.a(lib_a-malloc.o)
                0x08003808                malloc
 .text.free     0x08003818       0x10 c:/program files (x86)/gnu tools arm embedded/4.8 2014q2/bin/../lib/gcc/arm-none-eabi/4.8.4/../../../../arm-none-eabi/lib/armv7e-m/fpu\libc.a(lib_a-malloc.o)
                0x08003818                free
 .text._malloc_r
                0x08003828      0x538 c:/program files (x86)/gnu tools arm embedded/4.8 2014q2/bin/../lib/gcc/arm-none-eabi/4.8.4/../../../../arm-none-eabi/lib/armv7e-m/fpu\libc.a(lib_a-mallocr.o)
                0x08003828                _malloc_r
 .text.__malloc_lock
                0x08003d60        0x4 c:/program files (x86)/gnu tools arm embedded/4.8 2014q2/bin/../lib/gcc/arm-none-eabi/4.8.4/../../../../arm-none-eabi/lib/armv7e-m/fpu\libc.a(lib_a-mlock.o)
                0x08003d60                __malloc_lock
 .text.__malloc_unlock
                0x08003d64        0x4 c:/program files (x86)/gnu tools arm embedded/4.8 2014q2/bin/../lib/gcc/arm-none-eabi/4.8.4/../../../../arm-none-eabi/lib/armv7e-m/fpu\libc.a(lib_a-mlock.o)
                0x08003d64                __malloc_unlock
 .text._sbrk_r  0x08003d68       0x24 c:/program files (x86)/gnu tools arm embedded/4.8 2014q2/bin/../lib/gcc/arm-none-eabi/4.8.4/../../../../arm-none-eabi/lib/armv7e-m/fpu\libc.a(lib_a-sbrkr.o)
                0x08003d68                _sbrk_r
 .text._malloc_trim_r
                0x08003d8c       0x9c c:/program files (x86)/gnu tools arm embedded/4.8 2014q2/bin/../lib/gcc/arm-none-eabi/4.8.4/../../../../arm-none-eabi/lib/armv7e-m/fpu\libc.a(lib_a-freer.o)
                0x08003d8c                _malloc_trim_r
 .text._free_r  0x08003e28      0x19c c:/program files (x86)/gnu tools arm embedded/4.8 2014q2/bin/../lib/gcc/arm-none-eabi/4.8.4/../../../../arm-none-eabi/lib/armv7e-m/fpu\libc.a(lib_a-freer.o)
                0x08003e28                _free_r
 *(.init)
 *(.fini)
 *crtbegin.o(.ctors)
 *crtbegin?.o(.ctors)
 *(EXCLUDE_FILE(*crtend.o *crtend?.o) .ctors)
 *(SORT(.ctors.*))
 *(.ctors)
 *crtbegin.o(.dtors)
 *crtbegin?.o(.dtors)
 *(EXCLUDE_FILE(*crtend.o *crtend?.o) .dtors)
 *(SORT(.dtors.*))
 *(.dtors)
 *(.rodata*)
 .rodata        0x08003fc4      0x1bc ..\obj\main.o
                0x08003fc4                pitch_table
 .rodata        0x08004180       0x24 ..\obj\printf.o
 .rodata        0x080041a4      0x234 ..\obj\midi.o
                0x080041a4                cutoff_CC
 *(.eh_fram e*)

.glue_7         0x080043d8        0x0
 .glue_7        0x00000000        0x0 linker stubs

.glue_7t        0x080043d8        0x0
 .glue_7t       0x00000000        0x0 linker stubs

.vfp11_veneer   0x080043d8        0x0
 .vfp11_veneer  0x00000000        0x0 linker stubs

.v4_bx          0x080043d8        0x0
 .v4_bx         0x00000000        0x0 linker stubs

.iplt           0x080043d8        0x0
 .iplt          0x00000000        0x0 ..\obj\semihosting.o

.rel.dyn        0x080043d8        0x0
 .rel.iplt      0x00000000        0x0 ..\obj\semihosting.o

.ARM.extab
 *(.ARM.extab* .gnu.linkonce.armextab.*)
                0x080043d8                __exidx_start = .

.ARM.exidx
 *(.ARM.exidx* .gnu.linkonce.armexidx.*)
                0x080043d8                __exidx_end = .
                0x080043d8                __etext = .
                0x080043d8                _sidata = __etext

.data           0x20000000      0x854 load address 0x080043d8
                0x20000000                __data_start__ = .
                0x20000000                _sdata = __data_start__
 *(vtable)
 *(.data*)
 .data          0x20000000       0x10 ..\obj\stm32f4xx_rcc.o
 .data          0x20000010      0x430 ..\obj\printf.o
                0x20000010                r
                0x20000438                _impure_ptr
 .data          0x20000440        0x2 ..\obj\midi.o
 *fill*         0x20000442        0x2 
 .data.__malloc_av_
                0x20000444      0x408 c:/program files (x86)/gnu tools arm embedded/4.8 2014q2/bin/../lib/gcc/arm-none-eabi/4.8.4/../../../../arm-none-eabi/lib/armv7e-m/fpu\libc.a(lib_a-mallocr.o)
                0x20000444                __malloc_av_
 .data.__malloc_trim_threshold
                0x2000084c        0x4 c:/program files (x86)/gnu tools arm embedded/4.8 2014q2/bin/../lib/gcc/arm-none-eabi/4.8.4/../../../../arm-none-eabi/lib/armv7e-m/fpu\libc.a(lib_a-mallocr.o)
                0x2000084c                __malloc_trim_threshold
 .data.__malloc_sbrk_base
                0x20000850        0x4 c:/program files (x86)/gnu tools arm embedded/4.8 2014q2/bin/../lib/gcc/arm-none-eabi/4.8.4/../../../../arm-none-eabi/lib/armv7e-m/fpu\libc.a(lib_a-mallocr.o)
                0x20000850                __malloc_sbrk_base
                0x20000854                . = ALIGN (0x4)
                0x20000854                PROVIDE (__preinit_array_start, .)
 *(.preinit_array)
                0x20000854                PROVIDE (__preinit_array_end, .)
                0x20000854                . = ALIGN (0x4)
                0x20000854                PROVIDE (__init_array_start, .)
 *(SORT(.init_array.*))
 *(.init_array)
                0x20000854                PROVIDE (__init_array_end, .)
                0x20000854                . = ALIGN (0x4)
                0x20000854                PROVIDE (__fini_array_start, .)
 *(SORT(.fini_array.*))
 *(.fini_array)
                0x20000854                PROVIDE (__fini_array_end, .)
 *(.jcr*)
                0x20000854                . = ALIGN (0x4)
                0x20000854                __data_end__ = .
                0x20000854                _edata = __data_end__

.igot.plt       0x20000854        0x0 load address 0x08004c2c
 .igot.plt      0x00000000        0x0 ..\obj\semihosting.o

.bss            0x20000854      0x608 load address 0x08004c2c
                0x20000854                . = ALIGN (0x4)
                0x20000854                __bss_start__ = .
                0x20000854                _sbss = __bss_start__
 *(.bss*)
 .bss           0x20000854       0x14 ..\obj\main.o
                0x20000854                note_list
                0x20000858                sampleCounter
                0x2000085c                sample
                0x20000860                sawWave
                0x20000864                filteredSaw
 .bss           0x20000868        0x4 ..\obj\syscalls.o
 .bss           0x2000086c       0x48 ..\obj\midi.o
 .bss.__malloc_max_total_mem
                0x200008b4        0x4 c:/program files (x86)/gnu tools arm embedded/4.8 2014q2/bin/../lib/gcc/arm-none-eabi/4.8.4/../../../../arm-none-eabi/lib/armv7e-m/fpu\libc.a(lib_a-mallocr.o)
                0x200008b4                __malloc_max_total_mem
 .bss.__malloc_max_sbrked_mem
                0x200008b8        0x4 c:/program files (x86)/gnu tools arm embedded/4.8 2014q2/bin/../lib/gcc/arm-none-eabi/4.8.4/../../../../arm-none-eabi/lib/armv7e-m/fpu\libc.a(lib_a-mallocr.o)
                0x200008b8                __malloc_max_sbrked_mem
 .bss.__malloc_top_pad
                0x200008bc        0x4 c:/program files (x86)/gnu tools arm embedded/4.8 2014q2/bin/../lib/gcc/arm-none-eabi/4.8.4/../../../../arm-none-eabi/lib/armv7e-m/fpu\libc.a(lib_a-mallocr.o)
                0x200008bc                __malloc_top_pad
 .bss.__malloc_current_mallinfo
                0x200008c0       0x28 c:/program files (x86)/gnu tools arm embedded/4.8 2014q2/bin/../lib/gcc/arm-none-eabi/4.8.4/../../../../arm-none-eabi/lib/armv7e-m/fpu\libc.a(lib_a-mallocr.o)
                0x200008c0                __malloc_current_mallinfo
 *(COMMON)
 COMMON         0x200008e8      0x570 ..\obj\main.o
                0x200008e8                params
                0x20000940                new_note_event
                0x20000944                global_pitch
                0x20000948                trig
                0x2000094c                audiobuff
                0x20000e4c                GPIO_InitStructure
                0x20000e54                global_fc
 COMMON         0x20000e58        0x4 c:/program files (x86)/gnu tools arm embedded/4.8 2014q2/bin/../lib/gcc/arm-none-eabi/4.8.4/../../../../arm-none-eabi/lib/armv7e-m/fpu\libc.a(lib_a-reent.o)
                0x20000e58                errno
                0x20000e5c                . = ALIGN (0x4)
                0x20000e5c                __bss_end__ = .
                0x20000e5c                _ebss = __bss_end__

.heap           0x20000e5c        0x0
                0x20000e5c                __end__ = .
                0x20000e5c                _end = __end__
                0x20000e5c                end = __end__
 *(.heap*)
                0x20000e5c                __HeapLimit = .

.co_stack       0x20000e5c      0x804 load address 0x08005234
                0x20000e60                . = ALIGN (0x8)
 *fill*         0x20000e5c        0x4 
 *(.co_stack .co_stack.*)
 .co_stack      0x20000e60      0x800 ..\obj\startup_stm32f4xx.o
                0x20000e60                pulStack
                0x20020000                __StackTop = (ORIGIN (ram) + 0x20000)
                0x2001f7fc                __StackLimit = (__StackTop - SIZEOF (.co_stack))
                0x20020000                PROVIDE (__stack, __StackTop)
                0x00000001                ASSERT ((__StackLimit >= __HeapLimit), region ram  overflowed with stack)
LOAD ..\obj\semihosting.o
LOAD ..\obj\stm32f4xx_syscfg.o
LOAD ..\obj\stm32f4_discovery_audio_codec.o
LOAD ..\obj\stm32f4xx_usart.o
LOAD ..\obj\stm32f4xx_dac.o
LOAD ..\obj\llist.o
LOAD ..\obj\startup_stm32f4xx.o
LOAD ..\obj\main.o
LOAD ..\obj\stm32f4xx_rcc.o
LOAD ..\obj\printf.o
LOAD ..\obj\synth.o
LOAD ..\obj\stm32f4xx_gpio.o
LOAD ..\obj\sh_cmd.o
LOAD ..\obj\system_stm32f4xx.o
LOAD ..\obj\syscalls.o
LOAD ..\obj\stm32f4xx_dma.o
LOAD ..\obj\stm32f4xx_spi.o
LOAD ..\obj\stm32f4xx_i2c.o
LOAD ..\obj\misc.o
LOAD ..\obj\wavetable.o
LOAD ..\obj\midi.o
LOAD c:/program files (x86)/gnu tools arm embedded/4.8 2014q2/bin/../lib/gcc/arm-none-eabi/4.8.4/../../../../arm-none-eabi/lib/armv7e-m/fpu\libm.a
LOAD c:/program files (x86)/gnu tools arm embedded/4.8 2014q2/bin/../lib/gcc/arm-none-eabi/4.8.4/armv7e-m/fpu\libgcc.a
LOAD c:/program files (x86)/gnu tools arm embedded/4.8 2014q2/bin/../lib/gcc/arm-none-eabi/4.8.4/../../../../arm-none-eabi/lib/armv7e-m/fpu\libc.a
START GROUP
LOAD c:/program files (x86)/gnu tools arm embedded/4.8 2014q2/bin/../lib/gcc/arm-none-eabi/4.8.4/armv7e-m/fpu\libgcc.a
LOAD c:/program files (x86)/gnu tools arm embedded/4.8 2014q2/bin/../lib/gcc/arm-none-eabi/4.8.4/../../../../arm-none-eabi/lib/armv7e-m/fpu\libg.a
LOAD c:/program files (x86)/gnu tools arm embedded/4.8 2014q2/bin/../lib/gcc/arm-none-eabi/4.8.4/../../../../arm-none-eabi/lib/armv7e-m/fpu\libc.a
END GROUP
OUTPUT(Murphy_v1.1.elf elf32-littlearm)

.debug_info     0x00000000     0x7076
 .debug_info    0x00000000      0x674 ..\obj\stm32f4_discovery_audio_codec.o
 .debug_info    0x00000674      0x9c2 ..\obj\stm32f4xx_usart.o
 .debug_info    0x00001036      0x29b ..\obj\llist.o
 .debug_info    0x000012d1       0xed ..\obj\startup_stm32f4xx.o
 .debug_info    0x000013be      0x8bc ..\obj\main.o
 .debug_info    0x00001c7a      0xc4d ..\obj\stm32f4xx_rcc.o
 .debug_info    0x000028c7      0xf70 ..\obj\printf.o
 .debug_info    0x00003837      0x602 ..\obj\stm32f4xx_gpio.o
 .debug_info    0x00003e39       0x9f ..\obj\sh_cmd.o
 .debug_info    0x00003ed8      0x3ee ..\obj\syscalls.o
 .debug_info    0x000042c6      0x739 ..\obj\stm32f4xx_dma.o
 .debug_info    0x000049ff      0xb07 ..\obj\stm32f4xx_spi.o
 .debug_info    0x00005506      0xaf4 ..\obj\stm32f4xx_i2c.o
 .debug_info    0x00005ffa      0x53d ..\obj\misc.o
 .debug_info    0x00006537      0xb3f ..\obj\midi.o

.debug_abbrev   0x00000000     0x1494
 .debug_abbrev  0x00000000      0x14d ..\obj\stm32f4_discovery_audio_codec.o
 .debug_abbrev  0x0000014d      0x155 ..\obj\stm32f4xx_usart.o
 .debug_abbrev  0x000002a2      0x10d ..\obj\llist.o
 .debug_abbrev  0x000003af       0xb0 ..\obj\startup_stm32f4xx.o
 .debug_abbrev  0x0000045f      0x1cd ..\obj\main.o
 .debug_abbrev  0x0000062c      0x1e3 ..\obj\stm32f4xx_rcc.o
 .debug_abbrev  0x0000080f      0x2c4 ..\obj\printf.o
 .debug_abbrev  0x00000ad3      0x1a3 ..\obj\stm32f4xx_gpio.o
 .debug_abbrev  0x00000c76       0x14 ..\obj\sh_cmd.o
 .debug_abbrev  0x00000c8a       0xe2 ..\obj\syscalls.o
 .debug_abbrev  0x00000d6c      0x155 ..\obj\stm32f4xx_dma.o
 .debug_abbrev  0x00000ec1      0x167 ..\obj\stm32f4xx_spi.o
 .debug_abbrev  0x00001028      0x164 ..\obj\stm32f4xx_i2c.o
 .debug_abbrev  0x0000118c      0x145 ..\obj\misc.o
 .debug_abbrev  0x000012d1      0x1c3 ..\obj\midi.o

.debug_aranges  0x00000000      0x828
 .debug_aranges
                0x00000000       0x38 ..\obj\stm32f4_discovery_audio_codec.o
 .debug_aranges
                0x00000038      0x100 ..\obj\stm32f4xx_usart.o
 .debug_aranges
                0x00000138       0x40 ..\obj\llist.o
 .debug_aranges
                0x00000178       0x28 ..\obj\startup_stm32f4xx.o
 .debug_aranges
                0x000001a0       0x40 ..\obj\main.o
 .debug_aranges
                0x000001e0      0x178 ..\obj\stm32f4xx_rcc.o
 .debug_aranges
                0x00000358       0xa0 ..\obj\printf.o
 .debug_aranges
                0x000003f8       0x88 ..\obj\stm32f4xx_gpio.o
 .debug_aranges
                0x00000480       0x20 ..\obj\sh_cmd.o
 .debug_aranges
                0x000004a0       0x60 ..\obj\syscalls.o
 .debug_aranges
                0x00000500       0xb0 ..\obj\stm32f4xx_dma.o
 .debug_aranges
                0x000005b0       0xe0 ..\obj\stm32f4xx_spi.o
 .debug_aranges
                0x00000690      0x120 ..\obj\stm32f4xx_i2c.o
 .debug_aranges
                0x000007b0       0x40 ..\obj\misc.o
 .debug_aranges
                0x000007f0       0x38 ..\obj\midi.o

.debug_ranges   0x00000000      0x728
 .debug_ranges  0x00000000       0x28 ..\obj\stm32f4_discovery_audio_codec.o
 .debug_ranges  0x00000028       0xf0 ..\obj\stm32f4xx_usart.o
 .debug_ranges  0x00000118       0x30 ..\obj\llist.o
 .debug_ranges  0x00000148       0x18 ..\obj\startup_stm32f4xx.o
 .debug_ranges  0x00000160       0x30 ..\obj\main.o
 .debug_ranges  0x00000190      0x168 ..\obj\stm32f4xx_rcc.o
 .debug_ranges  0x000002f8       0x90 ..\obj\printf.o
 .debug_ranges  0x00000388       0x78 ..\obj\stm32f4xx_gpio.o
 .debug_ranges  0x00000400       0x50 ..\obj\syscalls.o
 .debug_ranges  0x00000450       0xa0 ..\obj\stm32f4xx_dma.o
 .debug_ranges  0x000004f0       0xd0 ..\obj\stm32f4xx_spi.o
 .debug_ranges  0x000005c0      0x110 ..\obj\stm32f4xx_i2c.o
 .debug_ranges  0x000006d0       0x30 ..\obj\misc.o
 .debug_ranges  0x00000700       0x28 ..\obj\midi.o

.debug_line     0x00000000     0x3027
 .debug_line    0x00000000      0x341 ..\obj\stm32f4_discovery_audio_codec.o
 .debug_line    0x00000341      0x4a9 ..\obj\stm32f4xx_usart.o
 .debug_line    0x000007ea      0x1df ..\obj\llist.o
 .debug_line    0x000009c9       0xa0 ..\obj\startup_stm32f4xx.o
 .debug_line    0x00000a69      0x2e9 ..\obj\main.o
 .debug_line    0x00000d52      0x5a1 ..\obj\stm32f4xx_rcc.o
 .debug_line    0x000012f3      0x490 ..\obj\printf.o
 .debug_line    0x00001783      0x346 ..\obj\stm32f4xx_gpio.o
 .debug_line    0x00001ac9       0x80 ..\obj\sh_cmd.o
 .debug_line    0x00001b49      0x171 ..\obj\syscalls.o
 .debug_line    0x00001cba      0x3e3 ..\obj\stm32f4xx_dma.o
 .debug_line    0x0000209d      0x459 ..\obj\stm32f4xx_spi.o
 .debug_line    0x000024f6      0x4e2 ..\obj\stm32f4xx_i2c.o
 .debug_line    0x000029d8      0x24c ..\obj\misc.o
 .debug_line    0x00002c24      0x403 ..\obj\midi.o

.debug_str      0x00000000     0x2d67
 .debug_str     0x00000000      0x577 ..\obj\stm32f4_discovery_audio_codec.o
                                0x5e1 (size before relaxing)
 .debug_str     0x00000577      0x4b1 ..\obj\stm32f4xx_usart.o
                                0x6b0 (size before relaxing)
 .debug_str     0x00000a28       0x92 ..\obj\llist.o
                                0x25c (size before relaxing)
 .debug_str     0x00000aba       0xae ..\obj\startup_stm32f4xx.o
                                0x168 (size before relaxing)
 .debug_str     0x00000b68      0x279 ..\obj\main.o
                                0x72d (size before relaxing)
 .debug_str     0x00000de1      0x5e1 ..\obj\stm32f4xx_rcc.o
                                0x871 (size before relaxing)
 .debug_str     0x000013c2      0x4b0 ..\obj\printf.o
                                0x72a (size before relaxing)
 .debug_str     0x00001872      0x19c ..\obj\stm32f4xx_gpio.o
                                0x4c4 (size before relaxing)
 .debug_str     0x00001a0e      0x141 ..\obj\syscalls.o
                                0x2f5 (size before relaxing)
 .debug_str     0x00001b4f      0x36d ..\obj\stm32f4xx_dma.o
                                0x563 (size before relaxing)
 .debug_str     0x00001ebc      0x316 ..\obj\stm32f4xx_spi.o
                                0x6ab (size before relaxing)
 .debug_str     0x000021d2      0x33e ..\obj\stm32f4xx_i2c.o
                                0x686 (size before relaxing)
 .debug_str     0x00002510      0x224 ..\obj\misc.o
                                0x3ef (size before relaxing)
 .debug_str     0x00002734      0x633 ..\obj\midi.o
                                0xdbd (size before relaxing)

.comment        0x00000000       0x70
 .comment       0x00000000       0x70 ..\obj\stm32f4_discovery_audio_codec.o
                                 0x71 (size before relaxing)
 .comment       0x00000000       0x71 ..\obj\stm32f4xx_usart.o
 .comment       0x00000000       0x71 ..\obj\llist.o
 .comment       0x00000000       0x71 ..\obj\startup_stm32f4xx.o
 .comment       0x00000000       0x71 ..\obj\main.o
 .comment       0x00000000       0x71 ..\obj\stm32f4xx_rcc.o
 .comment       0x00000000       0x71 ..\obj\printf.o
 .comment       0x00000000       0x71 ..\obj\stm32f4xx_gpio.o
 .comment       0x00000000       0x71 ..\obj\syscalls.o
 .comment       0x00000000       0x71 ..\obj\stm32f4xx_dma.o
 .comment       0x00000000       0x71 ..\obj\stm32f4xx_spi.o
 .comment       0x00000000       0x71 ..\obj\stm32f4xx_i2c.o
 .comment       0x00000000       0x71 ..\obj\misc.o
 .comment       0x00000000       0x71 ..\obj\midi.o

.ARM.attributes
                0x00000000       0x37
 .ARM.attributes
                0x00000000       0x39 ..\obj\stm32f4_discovery_audio_codec.o
 .ARM.attributes
                0x00000039       0x39 ..\obj\stm32f4xx_usart.o
 .ARM.attributes
                0x00000072       0x39 ..\obj\llist.o
 .ARM.attributes
                0x000000ab       0x39 ..\obj\startup_stm32f4xx.o
 .ARM.attributes
                0x000000e4       0x39 ..\obj\main.o
 .ARM.attributes
                0x0000011d       0x39 ..\obj\stm32f4xx_rcc.o
 .ARM.attributes
                0x00000156       0x39 ..\obj\printf.o
 .ARM.attributes
                0x0000018f       0x39 ..\obj\stm32f4xx_gpio.o
 .ARM.attributes
                0x000001c8       0x25 ..\obj\sh_cmd.o
 .ARM.attributes
                0x000001ed       0x39 ..\obj\syscalls.o
 .ARM.attributes
                0x00000226       0x39 ..\obj\stm32f4xx_dma.o
 .ARM.attributes
                0x0000025f       0x39 ..\obj\stm32f4xx_spi.o
 .ARM.attributes
                0x00000298       0x39 ..\obj\stm32f4xx_i2c.o
 .ARM.attributes
                0x000002d1       0x39 ..\obj\misc.o
 .ARM.attributes
                0x0000030a       0x39 ..\obj\midi.o
 .ARM.attributes
                0x00000343       0x22 c:/program files (x86)/gnu tools arm embedded/4.8 2014q2/bin/../lib/gcc/arm-none-eabi/4.8.4/armv7e-m/fpu\libgcc.a(_arm_addsubdf3.o)
 .ARM.attributes
                0x00000365       0x22 c:/program files (x86)/gnu tools arm embedded/4.8 2014q2/bin/../lib/gcc/arm-none-eabi/4.8.4/armv7e-m/fpu\libgcc.a(_arm_muldivdf3.o)
 .ARM.attributes
                0x00000387       0x22 c:/program files (x86)/gnu tools arm embedded/4.8 2014q2/bin/../lib/gcc/arm-none-eabi/4.8.4/armv7e-m/fpu\libgcc.a(_arm_fixdfsi.o)
 .ARM.attributes
                0x000003a9       0x22 c:/program files (x86)/gnu tools arm embedded/4.8 2014q2/bin/../lib/gcc/arm-none-eabi/4.8.4/armv7e-m/fpu\libgcc.a(_arm_truncdfsf2.o)
 .ARM.attributes
                0x000003cb       0x34 c:/program files (x86)/gnu tools arm embedded/4.8 2014q2/bin/../lib/gcc/arm-none-eabi/4.8.4/../../../../arm-none-eabi/lib/armv7e-m/fpu\libc.a(lib_a-malloc.o)
 .ARM.attributes
                0x000003ff       0x34 c:/program files (x86)/gnu tools arm embedded/4.8 2014q2/bin/../lib/gcc/arm-none-eabi/4.8.4/../../../../arm-none-eabi/lib/armv7e-m/fpu\libc.a(lib_a-mallocr.o)
 .ARM.attributes
                0x00000433       0x34 c:/program files (x86)/gnu tools arm embedded/4.8 2014q2/bin/../lib/gcc/arm-none-eabi/4.8.4/../../../../arm-none-eabi/lib/armv7e-m/fpu\libc.a(lib_a-mlock.o)
 .ARM.attributes
                0x00000467       0x34 c:/program files (x86)/gnu tools arm embedded/4.8 2014q2/bin/../lib/gcc/arm-none-eabi/4.8.4/../../../../arm-none-eabi/lib/armv7e-m/fpu\libc.a(lib_a-sbrkr.o)
 .ARM.attributes
                0x0000049b       0x34 c:/program files (x86)/gnu tools arm embedded/4.8 2014q2/bin/../lib/gcc/arm-none-eabi/4.8.4/../../../../arm-none-eabi/lib/armv7e-m/fpu\libc.a(lib_a-freer.o)
 .ARM.attributes
                0x000004cf       0x34 c:/program files (x86)/gnu tools arm embedded/4.8 2014q2/bin/../lib/gcc/arm-none-eabi/4.8.4/../../../../arm-none-eabi/lib/armv7e-m/fpu\libc.a(lib_a-reent.o)

.debug_frame    0x00000000     0x1a5c
 .debug_frame   0x00000000       0x90 ..\obj\stm32f4_discovery_audio_codec.o
 .debug_frame   0x00000090      0x344 ..\obj\stm32f4xx_usart.o
 .debug_frame   0x000003d4       0xac ..\obj\llist.o
 .debug_frame   0x00000480       0x48 ..\obj\startup_stm32f4xx.o
 .debug_frame   0x000004c8       0xa4 ..\obj\main.o
 .debug_frame   0x0000056c      0x4d8 ..\obj\stm32f4xx_rcc.o
 .debug_frame   0x00000a44      0x248 ..\obj\printf.o
 .debug_frame   0x00000c8c      0x19c ..\obj\stm32f4xx_gpio.o
 .debug_frame   0x00000e28      0x108 ..\obj\syscalls.o
 .debug_frame   0x00000f30      0x224 ..\obj\stm32f4xx_dma.o
 .debug_frame   0x00001154      0x2d0 ..\obj\stm32f4xx_spi.o
 .debug_frame   0x00001424      0x3b4 ..\obj\stm32f4xx_i2c.o
 .debug_frame   0x000017d8       0x9c ..\obj\misc.o
 .debug_frame   0x00001874       0x8c ..\obj\midi.o
 .debug_frame   0x00001900       0x30 c:/program files (x86)/gnu tools arm embedded/4.8 2014q2/bin/../lib/gcc/arm-none-eabi/4.8.4/../../../../arm-none-eabi/lib/armv7e-m/fpu\libc.a(lib_a-malloc.o)
 .debug_frame   0x00001930       0x38 c:/program files (x86)/gnu tools arm embedded/4.8 2014q2/bin/../lib/gcc/arm-none-eabi/4.8.4/../../../../arm-none-eabi/lib/armv7e-m/fpu\libc.a(lib_a-mallocr.o)
 .debug_frame   0x00001968       0x30 c:/program files (x86)/gnu tools arm embedded/4.8 2014q2/bin/../lib/gcc/arm-none-eabi/4.8.4/../../../../arm-none-eabi/lib/armv7e-m/fpu\libc.a(lib_a-mlock.o)
 .debug_frame   0x00001998       0x2c c:/program files (x86)/gnu tools arm embedded/4.8 2014q2/bin/../lib/gcc/arm-none-eabi/4.8.4/../../../../arm-none-eabi/lib/armv7e-m/fpu\libc.a(lib_a-sbrkr.o)
 .debug_frame   0x000019c4       0x50 c:/program files (x86)/gnu tools arm embedded/4.8 2014q2/bin/../lib/gcc/arm-none-eabi/4.8.4/../../../../arm-none-eabi/lib/armv7e-m/fpu\libc.a(lib_a-freer.o)
 .debug_frame   0x00001a14       0x48 c:/program files (x86)/gnu tools arm embedded/4.8 2014q2/bin/../lib/gcc/arm-none-eabi/4.8.4/../../../../arm-none-eabi/lib/armv7e-m/fpu\libc.a(lib_a-reent.o)
